
led_on_c_elf:     file format elf32-littlearm

Disassembly of section .text:

00000000 <_start>:
   0:	e3a00453 	mov	r0, #1392508928	; 0x53000000
   4:	e3a01000 	mov	r1, #0	; 0x0
   8:	e5801000 	str	r1, [r0]
   c:	e3a0da01 	mov	sp, #4096	; 0x1000
  10:	eb00000d 	bl	4c <main>

00000014 <halt_loop>:
  14:	eafffffe 	b	14 <halt_loop>

00000018 <delay>:
  18:	e1a0c00d 	mov	ip, sp
  1c:	e92dd800 	stmdb	sp!, {fp, ip, lr, pc}
  20:	e24cb004 	sub	fp, ip, #4	; 0x4
  24:	e24dd004 	sub	sp, sp, #4	; 0x4
  28:	e50b0010 	str	r0, [fp, #-16]
  2c:	e51b3010 	ldr	r3, [fp, #-16]
  30:	e3530000 	cmp	r3, #0	; 0x0
  34:	0a000003 	beq	48 <delay+0x30>
  38:	e51b3010 	ldr	r3, [fp, #-16]
  3c:	e2433001 	sub	r3, r3, #1	; 0x1
  40:	e50b3010 	str	r3, [fp, #-16]
  44:	eafffff8 	b	2c <delay+0x14>
  48:	e89da808 	ldmia	sp, {r3, fp, sp, pc}

0000004c <main>:
  4c:	e1a0c00d 	mov	ip, sp
  50:	e92dd800 	stmdb	sp!, {fp, ip, lr, pc}
  54:	e24cb004 	sub	fp, ip, #4	; 0x4
  58:	e24dd004 	sub	sp, sp, #4	; 0x4
  5c:	e3a03004 	mov	r3, #4	; 0x4
  60:	e50b3010 	str	r3, [fp, #-16]
  64:	e3a03456 	mov	r3, #1442840576	; 0x56000000
  68:	e2833050 	add	r3, r3, #80	; 0x50
  6c:	e3a02c15 	mov	r2, #5376	; 0x1500
  70:	e5832000 	str	r2, [r3]
  74:	e3a02456 	mov	r2, #1442840576	; 0x56000000
  78:	e2822054 	add	r2, r2, #84	; 0x54
  7c:	e3a01001 	mov	r1, #1	; 0x1
  80:	e51b3010 	ldr	r3, [fp, #-16]
  84:	e1a03311 	mov	r3, r1, lsl r3
  88:	e1e03003 	mvn	r3, r3
  8c:	e5823000 	str	r3, [r2]
  90:	e3a00b61 	mov	r0, #99328	; 0x18400
  94:	e2800e2a 	add	r0, r0, #672	; 0x2a0
  98:	ebffffde 	bl	18 <delay>
  9c:	e51b3010 	ldr	r3, [fp, #-16]
  a0:	e2833001 	add	r3, r3, #1	; 0x1
  a4:	e50b3010 	str	r3, [fp, #-16]
  a8:	e3530007 	cmp	r3, #7	; 0x7
  ac:	1afffff0 	bne	74 <main+0x28>
  b0:	e3a03004 	mov	r3, #4	; 0x4
  b4:	e50b3010 	str	r3, [fp, #-16]
  b8:	eaffffed 	b	74 <main+0x28>